; Function Attrs: mustprogress uwtable
define noundef zeroext i1 @_ZNK17RichParameterList12hasParameterERK7QString(ptr noundef nonnull readonly align 8 dereferenceable(24) %0, ptr noundef nonnull align 8 dereferenceable(8) %1) local_unnamed_addr #9 align 2 personality ptr @__gxx_personality_v0 {
  %.sroa.03.09.i = load ptr, ptr %0, align 8
  %.not810.i = icmp eq ptr %.sroa.03.09.i, %0
  br i1 %.not810.i, label %_ZNK17RichParameterList13findParameterERK7QString.exit, label %.lr.ph.i

.lr.ph.i:                                         ; preds = %2, %8
  %.sroa.03.011.i = phi ptr [ %.sroa.03.0.i, %8 ], [ %.sroa.03.09.i, %2 ]
  %3 = getelementptr inbounds i8, ptr %.sroa.03.011.i, i64 16
  %4 = load ptr, ptr %3, align 8
  %.not.i = icmp eq ptr %4, null
  br i1 %.not.i, label %8, label %5

5:                                                ; preds = %.lr.ph.i
  %6 = tail call noundef nonnull align 8 dereferenceable(8) ptr @_ZNK13RichParameter4nameEv(ptr noundef nonnull align 8 dereferenceable(56) %4)
  %7 = tail call noundef zeroext i1 @_ZeqRK7QStringS1_(ptr noundef nonnull align 8 dereferenceable(8) %6, ptr noundef nonnull align 8 dereferenceable(8) %1) #22
  br i1 %7, label %_ZNK17RichParameterList13findParameterERK7QString.exit, label %8

8:                                                ; preds = %5, %.lr.ph.i
  %.sroa.03.0.i = load ptr, ptr %.sroa.03.011.i, align 8
  %.not8.i = icmp eq ptr %.sroa.03.0.i, %0
  br i1 %.not8.i, label %_ZNK17RichParameterList13findParameterERK7QString.exit, label %.lr.ph.i, !llvm.loop !17

_ZNK17RichParameterList13findParameterERK7QString.exit: ; preds = %5, %8, %2
  %.sroa.07.0.i = phi ptr [ %0, %2 ], [ %.sroa.03.011.i, %5 ], [ %0, %8 ]
  %9 = icmp ne ptr %.sroa.07.0.i, %0
  ret i1 %9
}